-----BEGIN CERTIFICATE-----
MIIFoTCCA4mgAwIBAgIUC9v4AVt9yjGP2ogeoas3H66ibDIwDQYJKoZIhvcNAQEL
BQAwdzEwMC4GA1UEAwwnTWFnaWNIaWNlIFByaXZhdGUgQ2VydGlmaWNhdGUgQXV0
aG9yaXR5MSQwIgYJKoZIhvcNAQkBFhVoYW5iaW5nMDcxNUBnbWFpbC5jb20xCzAJ
BgNVBAYTAkNOMRAwDgYDVQQIDAdCZWlqaW5nMCAXDTAwMDEwMTAwMDAwMFoYDzIx
MDAwMTAxMDAwMDAwWjB3MTAwLgYDVQQDDCdNYWdpY0hpY2UgUHJpdmF0ZSBDZXJ0
aWZpY2F0ZSBBdXRob3JpdHkxJDAiBgkqhkiG9w0BCQEWFWhhbmJpbmcwNzE1QGdt
YWlsLmNvbTELMAkGA1UEBhMCQ04xEDAOBgNVBAgMB0JlaWppbmcwggIiMA0GCSqG
SIb3DQEBAQUAA4ICDwAwggIKAoICAQC+fze3fINBzTL+zG+Eut1geHWQpx/BNb2Y
/eY6Rti8WbqYS2DLZOExNv8Dk5Ou+GXcMg+JTWjzrlmpFCybhle1Qwzafs0zBpcO
T2QlNoWnshmmgg38FuRVO1VHJmp5Gw1fARLLVLHyUML8QWVaQbfJpK3QsOcL14NM
4Vbm+hKsXFk1bo8DDvZmyKG9cOijiCobsPoIa49ozqxlL+ATPsPs3U7LimUIUPwW
nynIglenOnX/XdUK+E83LNzIivGpBDXOHfaz/j7OjfOzvMImRmcPsD4Sv69DMCol
xEFQnxlgmn94d99AbnGbBs9oVJ7/78Or74tx14ir5gJQ2yJo8pgEYI8GtONwaKOB
SYp2q+dnev/CfhvwWRwsUCsIibk7DkzviXIT5T5HfT7w+k5ipFdhDh5Jsp2GE2eU
vJPNqXNNXEV0VvHIkKiQQ//qjPfovK8AyP2F5dRwB4lJ6C+K2HcE2O4DUEPt5ecx
suUCXce31ExOKKv7wWzkDutxaXN89uACL60pqYOcn085VtfybOHSt1Ycjy1QnSwM
2gQosmiwsaNwZbUFVuAPy8BnVlVpGKcO6rA6rN/oCGu3zzBvIIKLZwlTQkIdEH4L
DyyCcvmjpoM+Z3MUII0Nmroad2kwnvN9kljHTYrqwJ46p750RfMwMvag2+Lm5zj8
W3wX1ZPh/wIDAQABoyMwITAPBgNVHRMBAf8EBTADAQH/MA4GA1UdDwEB/wQEAwIB
BjANBgkqhkiG9w0BAQsFAAOCAgEAPn301Mf2jN0VY3JB4iKxzpJInNe1WVvxiqD4
G8Cpzp/6FGHCHP30ESu2L15fKqnyd43Md3lQVS/inDyllmpXR+oK4G6wyTV99XBN
g4moqRDNa9I0V+A/pqMuBsdioDNWfUtsrYrrbeeh3sdk5VkPU0eVKc5Z08YdiG+6
OHviepRgeDOPxBzSnAO87UsDUdTGuUID/ZRj67qQZhL/umzmkl9qCV65az7oJ8sV
iVrqLWZz7uPgvIC7++hjdZDTGb0ZVX2sBGi6/A9TaR7uRf7g6MkSlTeazeKhAlij
6CJ4+j9QiQQuELF/awvvLPiMvP7uQtEb9zSBuYI3FQdRxqh7kP8nB9n5GlmkzH1T
fqy20005karIQE5DcN7O8AexOnPlu7Lbrp7of2xREHSGmzZ8exhr/XbRySVWRiPs
DOK1BVOzmVL7Nq+oWPgI9oSvc/jza4OHCYuoFbWw9oItFn4LZBIjkDGY/QHt7gPz
6a0DutemtEu3l4ATSy/3War5L0Z1++aLFbcMy2uD/wM2pPdVnJIlJ8264kysqLcl
Gy1hx8fWDT3j9Q/h32tbho3MLPZzzJ/R9nRz8bIW3YTQ011cmkQIQEKU85cwHSit
++ZkWud90Ix0aOBosuRiJckYWHyt0oFxfHffO9gbJTLQDHYUE44UsN3WsxMa1plt
Yw705LY=
-----END CERTIFICATE-----
Certificate:
    Data:
        Version: 3 (0x2)
        Serial Number:
            0b:db:f8:01:5b:7d:ca:31:8f:da:88:1e:a1:ab:37:1f:ae:a2:6c:32
    Signature Algorithm: sha256WithRSAEncryption
        Issuer: CN=MagicHice Private Certificate Authority/emailAddress=hanbing0715@gmail.com, C=CN, ST=Beijing
        Validity
            Not Before: Jan  1 00:00:00 2000 GMT
            Not After : Jan  1 00:00:00 2100 GMT
        Subject: CN=MagicHice Private Certificate Authority/emailAddress=hanbing0715@gmail.com, C=CN, ST=Beijing
        Subject Public Key Info:
            Public Key Algorithm: rsaEncryption
                Public-Key: (4096 bit)
                Modulus:
                    00:be:7f:37:b7:7c:83:41:cd:32:fe:cc:6f:84:ba:
                    dd:60:78:75:90:a7:1f:c1:35:bd:98:fd:e6:3a:46:
                    d8:bc:59:ba:98:4b:60:cb:64:e1:31:36:ff:03:93:
                    93:ae:f8:65:dc:32:0f:89:4d:68:f3:ae:59:a9:14:
                    2c:9b:86:57:b5:43:0c:da:7e:cd:33:06:97:0e:4f:
                    64:25:36:85:a7:b2:19:a6:82:0d:fc:16:e4:55:3b:
                    55:47:26:6a:79:1b:0d:5f:01:12:cb:54:b1:f2:50:
                    c2:fc:41:65:5a:41:b7:c9:a4:ad:d0:b0:e7:0b:d7:
                    83:4c:e1:56:e6:fa:12:ac:5c:59:35:6e:8f:03:0e:
                    f6:66:c8:a1:bd:70:e8:a3:88:2a:1b:b0:fa:08:6b:
                    8f:68:ce:ac:65:2f:e0:13:3e:c3:ec:dd:4e:cb:8a:
                    65:08:50:fc:16:9f:29:c8:82:57:a7:3a:75:ff:5d:
                    d5:0a:f8:4f:37:2c:dc:c8:8a:f1:a9:04:35:ce:1d:
                    f6:b3:fe:3e:ce:8d:f3:b3:bc:c2:26:46:67:0f:b0:
                    3e:12:bf:af:43:30:2a:25:c4:41:50:9f:19:60:9a:
                    7f:78:77:df:40:6e:71:9b:06:cf:68:54:9e:ff:ef:
                    c3:ab:ef:8b:71:d7:88:ab:e6:02:50:db:22:68:f2:
                    98:04:60:8f:06:b4:e3:70:68:a3:81:49:8a:76:ab:
                    e7:67:7a:ff:c2:7e:1b:f0:59:1c:2c:50:2b:08:89:
                    b9:3b:0e:4c:ef:89:72:13:e5:3e:47:7d:3e:f0:fa:
                    4e:62:a4:57:61:0e:1e:49:b2:9d:86:13:67:94:bc:
                    93:cd:a9:73:4d:5c:45:74:56:f1:c8:90:a8:90:43:
                    ff:ea:8c:f7:e8:bc:af:00:c8:fd:85:e5:d4:70:07:
                    89:49:e8:2f:8a:d8:77:04:d8:ee:03:50:43:ed:e5:
                    e7:31:b2:e5:02:5d:c7:b7:d4:4c:4e:28:ab:fb:c1:
                    6c:e4:0e:eb:71:69:73:7c:f6:e0:02:2f:ad:29:a9:
                    83:9c:9f:4f:39:56:d7:f2:6c:e1:d2:b7:56:1c:8f:
                    2d:50:9d:2c:0c:da:04:28:b2:68:b0:b1:a3:70:65:
                    b5:05:56:e0:0f:cb:c0:67:56:55:69:18:a7:0e:ea:
                    b0:3a:ac:df:e8:08:6b:b7:cf:30:6f:20:82:8b:67:
                    09:53:42:42:1d:10:7e:0b:0f:2c:82:72:f9:a3:a6:
                    83:3e:67:73:14:20:8d:0d:9a:ba:1a:77:69:30:9e:
                    f3:7d:92:58:c7:4d:8a:ea:c0:9e:3a:a7:be:74:45:
                    f3:30:32:f6:a0:db:e2:e6:e7:38:fc:5b:7c:17:d5:
                    93:e1:ff
                Exponent: 65537 (0x10001)
        X509v3 extensions:
            X509v3 Basic Constraints: critical
                CA:TRUE
            X509v3 Key Usage: critical
                Certificate Sign, CRL Sign
    Signature Algorithm: sha256WithRSAEncryption
         3e:7d:f4:d4:c7:f6:8c:dd:15:63:72:41:e2:22:b1:ce:92:48:
         9c:d7:b5:59:5b:f1:8a:a0:f8:1b:c0:a9:ce:9f:fa:14:61:c2:
         1c:fd:f4:11:2b:b6:2f:5e:5f:2a:a9:f2:77:8d:cc:77:79:50:
         55:2f:e2:9c:3c:a5:96:6a:57:47:ea:0a:e0:6e:b0:c9:35:7d:
         f5:70:4d:83:89:a8:a9:10:cd:6b:d2:34:57:e0:3f:a6:a3:2e:
         06:c7:62:a0:33:56:7d:4b:6c:ad:8a:eb:6d:e7:a1:de:c7:64:
         e5:59:0f:53:47:95:29:ce:59:d3:c6:1d:88:6f:ba:38:7b:e2:
         7a:94:60:78:33:8f:c4:1c:d2:9c:03:bc:ed:4b:03:51:d4:c6:
         b9:42:03:fd:94:63:eb:ba:90:66:12:ff:ba:6c:e6:92:5f:6a:
         09:5e:b9:6b:3e:e8:27:cb:15:89:5a:ea:2d:66:73:ee:e3:e0:
         bc:80:bb:fb:e8:63:75:90:d3:19:bd:19:55:7d:ac:04:68:ba:
         fc:0f:53:69:1e:ee:45:fe:e0:e8:c9:12:95:37:9a:cd:e2:a1:
         02:58:a3:e8:22:78:fa:3f:50:89:04:2e:10:b1:7f:6b:0b:ef:
         2c:f8:8c:bc:fe:ee:42:d1:1b:f7:34:81:b9:82:37:15:07:51:
         c6:a8:7b:90:ff:27:07:d9:f9:1a:59:a4:cc:7d:53:7e:ac:b6:
         d3:4d:39:91:aa:c8:40:4e:43:70:de:ce:f0:07:b1:3a:73:e5:
         bb:b2:db:ae:9e:e8:7f:6c:51:10:74:86:9b:36:7c:7b:18:6b:
         fd:76:d1:c9:25:56:46:23:ec:0c:e2:b5:05:53:b3:99:52:fb:
         36:af:a8:58:f8:08:f6:84:af:73:f8:f3:6b:83:87:09:8b:a8:
         15:b5:b0:f6:82:2d:16:7e:0b:64:12:23:90:31:98:fd:01:ed:
         ee:03:f3:e9:ad:03:ba:d7:a6:b4:4b:b7:97:80:13:4b:2f:f7:
         59:aa:f9:2f:46:75:fb:e6:8b:15:b7:0c:cb:6b:83:ff:03:36:
         a4:f7:55:9c:92:25:27:cd:ba:e2:4c:ac:a8:b7:25:1b:2d:61:
         c7:c7:d6:0d:3d:e3:f5:0f:e1:df:6b:5b:86:8d:cc:2c:f6:73:
         cc:9f:d1:f6:74:73:f1:b2:16:dd:84:d0:d3:5d:5c:9a:44:08:
         40:42:94:f3:97:30:1d:28:ad:fb:e6:64:5a:e7:7d:d0:8c:74:
         68:e0:68:b2:e4:62:25:c9:18:58:7c:ad:d2:81:71:7c:77:df:
         3b:d8:1b:25:32:d0:0c:76:14:13:8e:14:b0:dd:d6:b3:13:1a:
         d6:99:6d:63:0e:f4:e4:b6
SHA1 Fingerprint=75:AD:88:60:B9:A8:73:D4:52:6C:8F:20:5C:FA:EC:3F:CE:AB:B5:C6
