-----BEGIN CERTIFICATE-----
MIIF4TCCA8mgAwIBAgIUf4TQ30h++Tvf+a+u+QiqusOA4MswDQYJKoZIhvcNAQEL
BQAwgZYxJjAkBgNVBAMMHVByaXZhdGUgQ2VydGlmaWNhdGUgQXV0aG9yaXR5MSQw
IgYJKoZIhvcNAQkBFhVoYW5iaW5nMDcxNUBnbWFpbC5jb20xCzAJBgNVBAYTAkNO
MRAwDgYDVQQIDAdCZWlqaW5nMScwJQYDVQQKDB5NYWdpY0hpY2UgVGVjaG5vbG9n
eSBDby4sIEx0ZC4wIBcNMDAwMTAxMDAwMDAwWhgPMjEwMDAxMDEwMDAwMDBaMIGW
MSYwJAYDVQQDDB1Qcml2YXRlIENlcnRpZmljYXRlIEF1dGhvcml0eTEkMCIGCSqG
SIb3DQEJARYVaGFuYmluZzA3MTVAZ21haWwuY29tMQswCQYDVQQGEwJDTjEQMA4G
A1UECAwHQmVpamluZzEnMCUGA1UECgweTWFnaWNIaWNlIFRlY2hub2xvZ3kgQ28u
LCBMdGQuMIICIjANBgkqhkiG9w0BAQEFAAOCAg8AMIICCgKCAgEAz9m+hw02tg69
XzNJ3jW2UrRUCOmkm/HleLA7rTLCDiA6WRNZE0UCMf8QBdPd7fJ9uT2FTEgsdvFS
lYKTEWSxAZbZ5FmlnLwValCPMTw0H3iTVJKRX3NFv5Eykjt1jjk3bqXBUMmD/Ni5
90gcFcdwN09Oj4KEqib3TMLTK80MXPYF6OiuArhIgWPMLG+j10u/kbBVhbF4mVq3
8nznDLLAeEaxAu5J2FKSkTe7Ulubfgnoq/QBrWVvA4G9NyPeLZivhrBYeDoHoPa9
LIoQZb6hOp57ZhUePo8UxYUJA/xOkcdfAOw2oKwUe8qVDZGTi225kq2UkaMakb6q
AIDKOJN3dEEwieGPv5afTd3XXBR/hPcYxYbtv0fSL1mk+marSp2+5XwRQHGuac2Y
afPGnHfN43OpQAdJOuTIJVUPiBhn6tTe8QYYzDP6O57EvLBGTqp1yS4rOYbSJtB7
VA+kPorq1/t7zqAeD8FM/vOFHGTWfaCPGN0TAKrU799j1vd1YQ+TmUHxXmil+hP0
Z3yoRfdctTWq0/4A2C5x9Ksaciud75F4ivTQYEfEbEHK+9OiUQTp4C7K5v5XqI5v
EV6q5vjMo7YVJa1hSS/ykQRn4KKCGYSNupYPzUjJReGsvicrTL55VF8axSLrx5aX
eHbRI5gAwo1H/cmLBtEjgL22ONOup20CAwEAAaMjMCEwDwYDVR0TAQH/BAUwAwEB
/zAOBgNVHQ8BAf8EBAMCAQYwDQYJKoZIhvcNAQELBQADggIBALpd+Ie89x4cx9H4
XUkFRlmsEnTmPQmknsBjeymPa8ljT/tHp5aXzd9au1zW3X2nMIdZ01jf8bH5Ws6K
hT64X1oE3PXre2cVwvLxgDgngdSquCwN/2KPmg2cFhjAeD2b002xh3cgFYWgmWQ9
ujy46U5A0vxSybMIZdZPQUjEdD2KvtEqpjLYgXkUis/I6wVcZjKqsR6aGt9BjQrY
vIoq3PqjJ+11JCtH9JugDNlXLH5kYwhLLrNkUidIgeFAHe9ktFke1euCDK3sKbQ7
wfugJRjOBSMemqtPzpFCZhfMN3oOOiDBSdz7RcoNdk1kE9YS2OEZeSoNQuwkm6bk
3XjG/hk4rRJ0JkDE1iXR2Oscu+KrVoMtydDKBKp5ZPpDqLyHvqZsSst2N4h8nksc
H1g3tp+rkZBHTGCAAguQ8Y9Eh30R+TlEww2qbhsfOxJMO8Z0AhDedN15gZ0lAYRR
3ecCBtvM2maiaXVIKHH7DPDEz6ulV4hYaAmMvIXfMpyXaG0aLsRIAli9mH4FjZ9A
YCn/9srkr0oFxRPDLn72rzHUW5x0UhffBNToozwCys3X+5cKfzR2nAfgjE0NnAaA
YEjWgEvEFPjqPJt2W6V3RF7LTaCPBUbBqvIxkMKPidqDSV/V478n1N74M4pgWf/7
v8l3jvALEup2qgJMI3bm/wJxk9MZ
-----END CERTIFICATE-----
Certificate:
    Data:
        Version: 3 (0x2)
        Serial Number:
            7f:84:d0:df:48:7e:f9:3b:df:f9:af:ae:f9:08:aa:ba:c3:80:e0:cb
        Signature Algorithm: sha256WithRSAEncryption
        Issuer: CN = Private Certificate Authority, emailAddress = hanbing0715@gmail.com, C = CN, ST = Beijing, O = "MagicHice Technology Co., Ltd."
        Validity
            Not Before: Jan  1 00:00:00 2000 GMT
            Not After : Jan  1 00:00:00 2100 GMT
        Subject: CN = Private Certificate Authority, emailAddress = hanbing0715@gmail.com, C = CN, ST = Beijing, O = "MagicHice Technology Co., Ltd."
        Subject Public Key Info:
            Public Key Algorithm: rsaEncryption
                Public-Key: (4096 bit)
                Modulus:
                    00:cf:d9:be:87:0d:36:b6:0e:bd:5f:33:49:de:35:
                    b6:52:b4:54:08:e9:a4:9b:f1:e5:78:b0:3b:ad:32:
                    c2:0e:20:3a:59:13:59:13:45:02:31:ff:10:05:d3:
                    dd:ed:f2:7d:b9:3d:85:4c:48:2c:76:f1:52:95:82:
                    93:11:64:b1:01:96:d9:e4:59:a5:9c:bc:15:6a:50:
                    8f:31:3c:34:1f:78:93:54:92:91:5f:73:45:bf:91:
                    32:92:3b:75:8e:39:37:6e:a5:c1:50:c9:83:fc:d8:
                    b9:f7:48:1c:15:c7:70:37:4f:4e:8f:82:84:aa:26:
                    f7:4c:c2:d3:2b:cd:0c:5c:f6:05:e8:e8:ae:02:b8:
                    48:81:63:cc:2c:6f:a3:d7:4b:bf:91:b0:55:85:b1:
                    78:99:5a:b7:f2:7c:e7:0c:b2:c0:78:46:b1:02:ee:
                    49:d8:52:92:91:37:bb:52:5b:9b:7e:09:e8:ab:f4:
                    01:ad:65:6f:03:81:bd:37:23:de:2d:98:af:86:b0:
                    58:78:3a:07:a0:f6:bd:2c:8a:10:65:be:a1:3a:9e:
                    7b:66:15:1e:3e:8f:14:c5:85:09:03:fc:4e:91:c7:
                    5f:00:ec:36:a0:ac:14:7b:ca:95:0d:91:93:8b:6d:
                    b9:92:ad:94:91:a3:1a:91:be:aa:00:80:ca:38:93:
                    77:74:41:30:89:e1:8f:bf:96:9f:4d:dd:d7:5c:14:
                    7f:84:f7:18:c5:86:ed:bf:47:d2:2f:59:a4:fa:66:
                    ab:4a:9d:be:e5:7c:11:40:71:ae:69:cd:98:69:f3:
                    c6:9c:77:cd:e3:73:a9:40:07:49:3a:e4:c8:25:55:
                    0f:88:18:67:ea:d4:de:f1:06:18:cc:33:fa:3b:9e:
                    c4:bc:b0:46:4e:aa:75:c9:2e:2b:39:86:d2:26:d0:
                    7b:54:0f:a4:3e:8a:ea:d7:fb:7b:ce:a0:1e:0f:c1:
                    4c:fe:f3:85:1c:64:d6:7d:a0:8f:18:dd:13:00:aa:
                    d4:ef:df:63:d6:f7:75:61:0f:93:99:41:f1:5e:68:
                    a5:fa:13:f4:67:7c:a8:45:f7:5c:b5:35:aa:d3:fe:
                    00:d8:2e:71:f4:ab:1a:72:2b:9d:ef:91:78:8a:f4:
                    d0:60:47:c4:6c:41:ca:fb:d3:a2:51:04:e9:e0:2e:
                    ca:e6:fe:57:a8:8e:6f:11:5e:aa:e6:f8:cc:a3:b6:
                    15:25:ad:61:49:2f:f2:91:04:67:e0:a2:82:19:84:
                    8d:ba:96:0f:cd:48:c9:45:e1:ac:be:27:2b:4c:be:
                    79:54:5f:1a:c5:22:eb:c7:96:97:78:76:d1:23:98:
                    00:c2:8d:47:fd:c9:8b:06:d1:23:80:bd:b6:38:d3:
                    ae:a7:6d
                Exponent: 65537 (0x10001)
        X509v3 extensions:
            X509v3 Basic Constraints: critical
                CA:TRUE
            X509v3 Key Usage: critical
                Certificate Sign, CRL Sign
    Signature Algorithm: sha256WithRSAEncryption
    Signature Value:
        ba:5d:f8:87:bc:f7:1e:1c:c7:d1:f8:5d:49:05:46:59:ac:12:
        74:e6:3d:09:a4:9e:c0:63:7b:29:8f:6b:c9:63:4f:fb:47:a7:
        96:97:cd:df:5a:bb:5c:d6:dd:7d:a7:30:87:59:d3:58:df:f1:
        b1:f9:5a:ce:8a:85:3e:b8:5f:5a:04:dc:f5:eb:7b:67:15:c2:
        f2:f1:80:38:27:81:d4:aa:b8:2c:0d:ff:62:8f:9a:0d:9c:16:
        18:c0:78:3d:9b:d3:4d:b1:87:77:20:15:85:a0:99:64:3d:ba:
        3c:b8:e9:4e:40:d2:fc:52:c9:b3:08:65:d6:4f:41:48:c4:74:
        3d:8a:be:d1:2a:a6:32:d8:81:79:14:8a:cf:c8:eb:05:5c:66:
        32:aa:b1:1e:9a:1a:df:41:8d:0a:d8:bc:8a:2a:dc:fa:a3:27:
        ed:75:24:2b:47:f4:9b:a0:0c:d9:57:2c:7e:64:63:08:4b:2e:
        b3:64:52:27:48:81:e1:40:1d:ef:64:b4:59:1e:d5:eb:82:0c:
        ad:ec:29:b4:3b:c1:fb:a0:25:18:ce:05:23:1e:9a:ab:4f:ce:
        91:42:66:17:cc:37:7a:0e:3a:20:c1:49:dc:fb:45:ca:0d:76:
        4d:64:13:d6:12:d8:e1:19:79:2a:0d:42:ec:24:9b:a6:e4:dd:
        78:c6:fe:19:38:ad:12:74:26:40:c4:d6:25:d1:d8:eb:1c:bb:
        e2:ab:56:83:2d:c9:d0:ca:04:aa:79:64:fa:43:a8:bc:87:be:
        a6:6c:4a:cb:76:37:88:7c:9e:4b:1c:1f:58:37:b6:9f:ab:91:
        90:47:4c:60:80:02:0b:90:f1:8f:44:87:7d:11:f9:39:44:c3:
        0d:aa:6e:1b:1f:3b:12:4c:3b:c6:74:02:10:de:74:dd:79:81:
        9d:25:01:84:51:dd:e7:02:06:db:cc:da:66:a2:69:75:48:28:
        71:fb:0c:f0:c4:cf:ab:a5:57:88:58:68:09:8c:bc:85:df:32:
        9c:97:68:6d:1a:2e:c4:48:02:58:bd:98:7e:05:8d:9f:40:60:
        29:ff:f6:ca:e4:af:4a:05:c5:13:c3:2e:7e:f6:af:31:d4:5b:
        9c:74:52:17:df:04:d4:e8:a3:3c:02:ca:cd:d7:fb:97:0a:7f:
        34:76:9c:07:e0:8c:4d:0d:9c:06:80:60:48:d6:80:4b:c4:14:
        f8:ea:3c:9b:76:5b:a5:77:44:5e:cb:4d:a0:8f:05:46:c1:aa:
        f2:31:90:c2:8f:89:da:83:49:5f:d5:e3:bf:27:d4:de:f8:33:
        8a:60:59:ff:fb:bf:c9:77:8e:f0:0b:12:ea:76:aa:02:4c:23:
        76:e6:ff:02:71:93:d3:19
SHA1 Fingerprint=17:84:02:9C:44:02:1A:F0:82:E1:3E:37:09:2E:9A:6E:1D:7F:9A:0B
